target datalayout = "e-m:e-p270:32:32-p271:32:32-p272:64:64-i64:64-i128:128-f80:128-n8:16:32:64-S128"
target triple = "x86_64-pc-linux-gnu"

%"class.llvm::DWARFDie" = type { ptr, ptr }
%"class.llvm::SmallVectorBase" = type { ptr, i32, i32 }
%"class.llvm::DWARFAbbreviationDeclaration" = type { i32, i16, i8, i8, %"class.llvm::SmallVector.55", %"class.std::optional.60" }
%"class.llvm::SmallVector.55" = type { %"class.llvm::SmallVectorImpl.56", %"struct.llvm::SmallVectorStorage.59" }
%"class.llvm::SmallVectorImpl.56" = type { %"class.llvm::SmallVectorTemplateBase.57" }
%"class.llvm::SmallVectorTemplateBase.57" = type { %"class.llvm::SmallVectorTemplateCommon.58" }
%"class.llvm::SmallVectorTemplateCommon.58" = type { %"class.llvm::SmallVectorBase" }
%"struct.llvm::SmallVectorStorage.59" = type { [128 x i8] }
%"class.std::optional.60" = type { %"struct.std::_Optional_base.61" }
%"struct.std::_Optional_base.61" = type { %"struct.std::_Optional_payload.63" }
%"struct.std::_Optional_payload.63" = type { %"struct.std::_Optional_payload_base.base.65", i8 }
%"struct.std::_Optional_payload_base.base.65" = type { %"union.std::_Optional_payload_base<llvm::DWARFAbbreviationDeclaration::FixedSizeInfo>::_Storage", i8 }
%"union.std::_Optional_payload_base<llvm::DWARFAbbreviationDeclaration::FixedSizeInfo>::_Storage" = type { %"struct.llvm::DWARFAbbreviationDeclaration::FixedSizeInfo" }
%"struct.llvm::DWARFAbbreviationDeclaration::FixedSizeInfo" = type <{ i16, i8, i8, i8, i8 }>
%"class.llvm::DWARFDebugInfoEntry" = type { i64, i32, i32, ptr }

; Function Attrs: mustprogress nounwind uwtable
define linkonce_odr hidden noundef ptr @_ZNK4llvm19DWARFDebugInfoEntry29getAbbreviationDeclarationPtrEv(ptr noundef nonnull align 8 dereferenceable(24) %0) #0 comdat align 2 {
  %2 = alloca ptr, align 8
  store ptr %0, ptr %2, align 8
  %3 = load ptr, ptr %2, align 8
  %4 = getelementptr inbounds nuw %"class.llvm::DWARFDebugInfoEntry", ptr %3, i32 0, i32 3
  %5 = load ptr, ptr %4, align 8
  ret ptr %5
}

; Function Attrs: mustprogress nounwind uwtable
define linkonce_odr hidden noundef zeroext i16 @_ZNK4llvm28DWARFAbbreviationDeclaration6getTagEv(ptr noundef nonnull align 8 dereferenceable(160) %0) #0 comdat align 2 {
  %2 = alloca ptr, align 8
  store ptr %0, ptr %2, align 8
  %3 = load ptr, ptr %2, align 8
  %4 = getelementptr inbounds nuw %"class.llvm::DWARFAbbreviationDeclaration", ptr %3, i32 0, i32 1
  %5 = load i16, ptr %4, align 4
  ret i16 %5
}

; Function Attrs: mustprogress nounwind uwtable
define linkonce_odr hidden noundef ptr @_ZNK4llvm8DWARFDie29getAbbreviationDeclarationPtrEv(ptr noundef nonnull align 8 dereferenceable(16) %0) #0 comdat align 2 {
  %2 = alloca ptr, align 8
  store ptr %0, ptr %2, align 8
  %3 = load ptr, ptr %2, align 8
  %4 = getelementptr inbounds nuw %"class.llvm::DWARFDie", ptr %3, i32 0, i32 1
  %5 = load ptr, ptr %4, align 8
  %6 = call noundef ptr @_ZNK4llvm19DWARFDebugInfoEntry29getAbbreviationDeclarationPtrEv(ptr noundef nonnull align 8 dereferenceable(24) %5)
  ret ptr %6
}

; Function Attrs: mustprogress nounwind uwtable
define linkonce_odr hidden noundef zeroext i1 @_ZNK4llvm8DWARFDie7isValidEv(ptr noundef nonnull align 8 dereferenceable(16) %0) #0 comdat align 2 {
  %2 = alloca ptr, align 8
  store ptr %0, ptr %2, align 8
  %3 = load ptr, ptr %2, align 8
  %4 = getelementptr inbounds nuw %"class.llvm::DWARFDie", ptr %3, i32 0, i32 0
  %5 = load ptr, ptr %4, align 8
  %6 = icmp ne ptr %5, null
  br i1 %6, label %7, label %11

7:                                                ; preds = %1
  %8 = getelementptr inbounds nuw %"class.llvm::DWARFDie", ptr %3, i32 0, i32 1
  %9 = load ptr, ptr %8, align 8
  %10 = icmp ne ptr %9, null
  br label %11

11:                                               ; preds = %7, %1
  %12 = phi i1 [ false, %1 ], [ %10, %7 ]
  ret i1 %12
}

; Function Attrs: mustprogress nounwind uwtable
define internal { ptr, ptr } @_ZN4llvmL21resolveReferencedTypeENS_8DWARFDieENS_5dwarf9AttributeE(ptr %0, ptr %1, i16 noundef zeroext %2) #0 {
  %4 = alloca %"class.llvm::DWARFDie", align 8
  %5 = alloca %"class.llvm::DWARFDie", align 8
  %6 = alloca i16, align 2
  %7 = alloca %"class.llvm::DWARFDie", align 8
  %8 = getelementptr inbounds nuw { ptr, ptr }, ptr %5, i32 0, i32 0
  store ptr %0, ptr %8, align 8
  %9 = getelementptr inbounds nuw { ptr, ptr }, ptr %5, i32 0, i32 1
  store ptr %1, ptr %9, align 8
  store i16 %2, ptr %6, align 2
  %10 = load i16, ptr %6, align 2
  %11 = call { ptr, ptr } @_ZNK4llvm8DWARFDie32getAttributeValueAsReferencedDieENS_5dwarf9AttributeE(ptr noundef nonnull align 8 dereferenceable(16) %5, i16 noundef zeroext %10)
  %12 = getelementptr inbounds nuw { ptr, ptr }, ptr %7, i32 0, i32 0
  %13 = extractvalue { ptr, ptr } %11, 0
  store ptr %13, ptr %12, align 8
  %14 = getelementptr inbounds nuw { ptr, ptr }, ptr %7, i32 0, i32 1
  %15 = extractvalue { ptr, ptr } %11, 1
  store ptr %15, ptr %14, align 8
  %16 = call { ptr, ptr } @_ZNK4llvm8DWARFDie24resolveTypeUnitReferenceEv(ptr noundef nonnull align 8 dereferenceable(16) %7)
  %17 = getelementptr inbounds nuw { ptr, ptr }, ptr %4, i32 0, i32 0
  %18 = extractvalue { ptr, ptr } %16, 0
  store ptr %18, ptr %17, align 8
  %19 = getelementptr inbounds nuw { ptr, ptr }, ptr %4, i32 0, i32 1
  %20 = extractvalue { ptr, ptr } %16, 1
  store ptr %20, ptr %19, align 8
  %21 = load { ptr, ptr }, ptr %4, align 8
  ret { ptr, ptr } %21
}

; Function Attrs: mustprogress nounwind uwtable
define linkonce_odr hidden noundef zeroext i16 @_ZNK4llvm8DWARFDie6getTagEv(ptr noundef nonnull align 8 dereferenceable(16) %0) #0 comdat align 2 {
  %2 = alloca i16, align 2
  %3 = alloca ptr, align 8
  %4 = alloca ptr, align 8
  store ptr %0, ptr %3, align 8
  %5 = load ptr, ptr %3, align 8
  %6 = call noundef ptr @_ZNK4llvm8DWARFDie29getAbbreviationDeclarationPtrEv(ptr noundef nonnull align 8 dereferenceable(16) %5)
  store ptr %6, ptr %4, align 8
  %7 = load ptr, ptr %4, align 8
  %8 = icmp ne ptr %7, null
  br i1 %8, label %9, label %12

9:                                                ; preds = %1
  %10 = load ptr, ptr %4, align 8
  %11 = call noundef zeroext i16 @_ZNK4llvm28DWARFAbbreviationDeclaration6getTagEv(ptr noundef nonnull align 8 dereferenceable(160) %10)
  store i16 %11, ptr %2, align 2
  br label %13

12:                                               ; preds = %1
  store i16 0, ptr %2, align 2
  br label %13

13:                                               ; preds = %12, %9
  %14 = load i16, ptr %2, align 2
  ret i16 %14
}

; Function Attrs: mustprogress nounwind uwtable
define linkonce_odr hidden noundef zeroext i1 @_ZNK4llvm8DWARFDiecvbEv(ptr noundef nonnull align 8 dereferenceable(16) %0) #0 comdat align 2 {
  %2 = alloca ptr, align 8
  store ptr %0, ptr %2, align 8
  %3 = load ptr, ptr %2, align 8
  %4 = call noundef zeroext i1 @_ZNK4llvm8DWARFDie7isValidEv(ptr noundef nonnull align 8 dereferenceable(16) %3)
  ret i1 %4
}

; Function Attrs: mustprogress nounwind uwtable
define dso_local { ptr, ptr } @_ZN4llvm16DWARFTypePrinter14skipQualifiersENS_8DWARFDieE(ptr noundef nonnull align 8 dereferenceable(10) %0, ptr %1, ptr %2) #0 align 2 {
  %4 = alloca %"class.llvm::DWARFDie", align 8
  %5 = alloca %"class.llvm::DWARFDie", align 8
  %6 = alloca ptr, align 8
  %7 = alloca %"class.llvm::DWARFDie", align 8
  %8 = alloca %"class.llvm::DWARFDie", align 8
  %9 = getelementptr inbounds nuw { ptr, ptr }, ptr %5, i32 0, i32 0
  store ptr %1, ptr %9, align 8
  %10 = getelementptr inbounds nuw { ptr, ptr }, ptr %5, i32 0, i32 1
  store ptr %2, ptr %10, align 8
  store ptr %0, ptr %6, align 8
  br label %11

11:                                               ; preds = %25, %3
  %12 = call noundef zeroext i1 @_ZNK4llvm8DWARFDiecvbEv(ptr noundef nonnull align 8 dereferenceable(16) %5)
  br i1 %12, label %13, label %23

13:                                               ; preds = %11
  %14 = call noundef zeroext i16 @_ZNK4llvm8DWARFDie6getTagEv(ptr noundef nonnull align 8 dereferenceable(16) %5)
  %15 = zext i16 %14 to i32
  %16 = icmp eq i32 %15, 38
  br i1 %16, label %21, label %17

17:                                               ; preds = %13
  %18 = call noundef zeroext i16 @_ZNK4llvm8DWARFDie6getTagEv(ptr noundef nonnull align 8 dereferenceable(16) %5)
  %19 = zext i16 %18 to i32
  %20 = icmp eq i32 %19, 53
  br label %21

21:                                               ; preds = %17, %13
  %22 = phi i1 [ true, %13 ], [ %20, %17 ]
  br label %23

23:                                               ; preds = %21, %11
  %24 = phi i1 [ false, %11 ], [ %22, %21 ]
  br i1 %24, label %25, label %35

25:                                               ; preds = %23
  call void @llvm.memcpy.p0.p0.i64(ptr align 8 %8, ptr align 8 %5, i64 16, i1 false)
  %26 = getelementptr inbounds nuw { ptr, ptr }, ptr %8, i32 0, i32 0
  %27 = load ptr, ptr %26, align 8
  %28 = getelementptr inbounds nuw { ptr, ptr }, ptr %8, i32 0, i32 1
  %29 = load ptr, ptr %28, align 8
  %30 = call { ptr, ptr } @_ZN4llvmL21resolveReferencedTypeENS_8DWARFDieENS_5dwarf9AttributeE(ptr %27, ptr %29, i16 noundef zeroext 73)
  %31 = getelementptr inbounds nuw { ptr, ptr }, ptr %7, i32 0, i32 0
  %32 = extractvalue { ptr, ptr } %30, 0
  store ptr %32, ptr %31, align 8
  %33 = getelementptr inbounds nuw { ptr, ptr }, ptr %7, i32 0, i32 1
  %34 = extractvalue { ptr, ptr } %30, 1
  store ptr %34, ptr %33, align 8
  call void @llvm.memcpy.p0.p0.i64(ptr align 8 %5, ptr align 8 %7, i64 16, i1 false)
  br label %11, !llvm.loop !4

35:                                               ; preds = %23
  call void @llvm.memcpy.p0.p0.i64(ptr align 8 %4, ptr align 8 %5, i64 16, i1 false)
  %36 = load { ptr, ptr }, ptr %4, align 8
  ret { ptr, ptr } %36
}