; Function Attrs: mustprogress nounwind uwtable
define dso_local { ptr, ptr } @_ZN4llvm16DWARFTypePrinter14skipQualifiersENS_8DWARFDieE(ptr noundef nonnull readnone align 8 captures(none) dereferenceable(10) %0, ptr %1, ptr %2) local_unnamed_addr #0 align 2 {
  %4 = alloca %"class.llvm::DWARFDie", align 8
  %5 = alloca %"class.llvm::DWARFDie", align 8
  %.not.i.i14 = icmp ne ptr %1, null
  %6 = icmp ne ptr %2, null
  %7 = select i1 %.not.i.i14, i1 %6, i1 false
  br i1 %7, label %.lr.ph, label %.critedge

.lr.ph:                                           ; preds = %3
  %8 = getelementptr inbounds nuw i8, ptr %4, i64 8
  %9 = getelementptr inbounds nuw i8, ptr %5, i64 8
  br label %10

10:                                               ; preds = %.lr.ph, %.critedge2
  %storemerge16 = phi ptr [ %2, %.lr.ph ], [ %20, %.critedge2 ]
  %.sroa.0.015 = phi ptr [ %1, %.lr.ph ], [ %19, %.critedge2 ]
  %11 = getelementptr inbounds nuw i8, ptr %storemerge16, i64 16
  %12 = load ptr, ptr %11, align 8
  %.not.i = icmp eq ptr %12, null
  br i1 %.not.i, label %.critedge, label %_ZNK4llvm8DWARFDie6getTagEv.exit

_ZNK4llvm8DWARFDie6getTagEv.exit:                 ; preds = %10
  %13 = getelementptr inbounds nuw i8, ptr %12, i64 4
  %14 = load i16, ptr %13, align 4
  switch i16 %14, label %.critedge [
    i16 53, label %.critedge2
    i16 38, label %.critedge2
  ]

.critedge2:                                       ; preds = %_ZNK4llvm8DWARFDie6getTagEv.exit, %_ZNK4llvm8DWARFDie6getTagEv.exit
  call void @llvm.lifetime.start.p0(i64 16, ptr nonnull %4)
  call void @llvm.lifetime.start.p0(i64 16, ptr nonnull %5)
  store ptr %.sroa.0.015, ptr %4, align 8
  store ptr %storemerge16, ptr %8, align 8
  %15 = call { ptr, ptr } @_ZNK4llvm8DWARFDie32getAttributeValueAsReferencedDieENS_5dwarf9AttributeE(ptr noundef nonnull align 8 dereferenceable(16) %4, i16 noundef zeroext 73) #16
  %16 = extractvalue { ptr, ptr } %15, 0
  store ptr %16, ptr %5, align 8
  %17 = extractvalue { ptr, ptr } %15, 1
  store ptr %17, ptr %9, align 8
  %18 = call { ptr, ptr } @_ZNK4llvm8DWARFDie24resolveTypeUnitReferenceEv(ptr noundef nonnull align 8 dereferenceable(16) %5) #16
  call void @llvm.lifetime.end.p0(i64 16, ptr nonnull %4)
  call void @llvm.lifetime.end.p0(i64 16, ptr nonnull %5)
  %19 = extractvalue { ptr, ptr } %18, 0
  %20 = extractvalue { ptr, ptr } %18, 1
  %.not.i.i = icmp ne ptr %19, null
  %21 = icmp ne ptr %20, null
  %22 = select i1 %.not.i.i, i1 %21, i1 false
  br i1 %22, label %10, label %.critedge, !llvm.loop !7

.critedge:                                        ; preds = %.critedge2, %10, %_ZNK4llvm8DWARFDie6getTagEv.exit, %3
  %.sroa.0.0.lcssa = phi ptr [ %1, %3 ], [ %.sroa.0.015, %10 ], [ %19, %.critedge2 ], [ %.sroa.0.015, %_ZNK4llvm8DWARFDie6getTagEv.exit ]
  %storemerge.lcssa = phi ptr [ %2, %3 ], [ %storemerge16, %10 ], [ %20, %.critedge2 ], [ %storemerge16, %_ZNK4llvm8DWARFDie6getTagEv.exit ]
  %.fca.0.insert = insertvalue { ptr, ptr } poison, ptr %.sroa.0.0.lcssa, 0
  %.fca.1.insert = insertvalue { ptr, ptr } %.fca.0.insert, ptr %storemerge.lcssa, 1
  ret { ptr, ptr } %.fca.1.insert
}